; ModuleID = '5/87.c'
source_filename = "5/87.c"
target datalayout = "e-m:e-p270:32:32-p271:32:32-p272:64:64-i64:64-f80:128-n8:16:32:64-S128"
target triple = "x86_64-pc-linux-gnu"

@__const.main.c = private unnamed_addr constant [5 x i8] c"ATCG\00", align 1
@.str = private unnamed_addr constant [4 x i8] c"%lf\00", align 1
@.str.1 = private unnamed_addr constant [3 x i8] c"%s\00", align 1
@.str.2 = private unnamed_addr constant [6 x i8] c"error\00", align 1
@.str.3 = private unnamed_addr constant [4 x i8] c"yes\00", align 1
@.str.4 = private unnamed_addr constant [3 x i8] c"no\00", align 1

; Function Attrs: noinline nounwind uwtable
define dso_local i32 @main() #0 {
  %1 = alloca i32, align 4
  %2 = alloca i32, align 4
  %3 = alloca i32, align 4
  %4 = alloca i32, align 4
  %5 = alloca double, align 8
  %6 = alloca [501 x i8], align 16
  %7 = alloca [501 x i8], align 16
  %8 = alloca [5 x i8], align 1
  store i32 0, i32* %1, align 4
  store i32 0, i32* %4, align 4
  %9 = bitcast [5 x i8]* %8 to i8*
  call void @llvm.memcpy.p0i8.p0i8.i64(i8* align 1 %9, i8* align 1 getelementptr inbounds ([5 x i8], [5 x i8]* @__const.main.c, i32 0, i32 0), i64 5, i1 false)
  %10 = call i32 (i8*, ...) @__isoc99_scanf(i8* getelementptr inbounds ([4 x i8], [4 x i8]* @.str, i64 0, i64 0), double* %5)
  %11 = getelementptr inbounds [501 x i8], [501 x i8]* %6, i64 0, i64 0
  %12 = call i32 (i8*, ...) @__isoc99_scanf(i8* getelementptr inbounds ([3 x i8], [3 x i8]* @.str.1, i64 0, i64 0), i8* %11)
  %13 = getelementptr inbounds [501 x i8], [501 x i8]* %7, i64 0, i64 0
  %14 = call i32 (i8*, ...) @__isoc99_scanf(i8* getelementptr inbounds ([3 x i8], [3 x i8]* @.str.1, i64 0, i64 0), i8* %13)
  store i32 0, i32* %2, align 4
  br label %15

15:                                               ; preds = %64, %0
  %16 = load i32, i32* %2, align 4
  %17 = sext i32 %16 to i64
  %18 = getelementptr inbounds [501 x i8], [501 x i8]* %6, i64 0, i64 0
  %19 = call i64 @strlen(i8* %18) #4
  %20 = icmp ult i64 %17, %19
  br i1 %20, label %21, label %67

21:                                               ; preds = %15
  %22 = load i32, i32* %2, align 4
  %23 = sext i32 %22 to i64
  %24 = getelementptr inbounds [501 x i8], [501 x i8]* %6, i64 0, i64 %23
  %25 = load i8, i8* %24, align 1
  %26 = sext i8 %25 to i32
  %27 = getelementptr inbounds [5 x i8], [5 x i8]* %8, i64 0, i64 0
  %28 = load i8, i8* %27, align 1
  %29 = sext i8 %28 to i32
  %30 = icmp ne i32 %26, %29
  br i1 %30, label %31, label %63

31:                                               ; preds = %21
  %32 = load i32, i32* %2, align 4
  %33 = sext i32 %32 to i64
  %34 = getelementptr inbounds [501 x i8], [501 x i8]* %6, i64 0, i64 %33
  %35 = load i8, i8* %34, align 1
  %36 = sext i8 %35 to i32
  %37 = getelementptr inbounds [5 x i8], [5 x i8]* %8, i64 0, i64 1
  %38 = load i8, i8* %37, align 1
  %39 = sext i8 %38 to i32
  %40 = icmp ne i32 %36, %39
  br i1 %40, label %41, label %63

41:                                               ; preds = %31
  %42 = load i32, i32* %2, align 4
  %43 = sext i32 %42 to i64
  %44 = getelementptr inbounds [501 x i8], [501 x i8]* %6, i64 0, i64 %43
  %45 = load i8, i8* %44, align 1
  %46 = sext i8 %45 to i32
  %47 = getelementptr inbounds [5 x i8], [5 x i8]* %8, i64 0, i64 2
  %48 = load i8, i8* %47, align 1
  %49 = sext i8 %48 to i32
  %50 = icmp ne i32 %46, %49
  br i1 %50, label %51, label %63

51:                                               ; preds = %41
  %52 = load i32, i32* %2, align 4
  %53 = sext i32 %52 to i64
  %54 = getelementptr inbounds [501 x i8], [501 x i8]* %6, i64 0, i64 %53
  %55 = load i8, i8* %54, align 1
  %56 = sext i8 %55 to i32
  %57 = getelementptr inbounds [5 x i8], [5 x i8]* %8, i64 0, i64 3
  %58 = load i8, i8* %57, align 1
  %59 = sext i8 %58 to i32
  %60 = icmp ne i32 %56, %59
  br i1 %60, label %61, label %63

61:                                               ; preds = %51
  %62 = call i32 (i8*, ...) @printf(i8* getelementptr inbounds ([6 x i8], [6 x i8]* @.str.2, i64 0, i64 0))
  store i32 0, i32* %1, align 4
  br label %177

63:                                               ; preds = %51, %41, %31, %21
  br label %64

64:                                               ; preds = %63
  %65 = load i32, i32* %2, align 4
  %66 = add nsw i32 %65, 1
  store i32 %66, i32* %2, align 4
  br label %15

67:                                               ; preds = %15
  store i32 0, i32* %2, align 4
  br label %68

68:                                               ; preds = %117, %67
  %69 = load i32, i32* %2, align 4
  %70 = sext i32 %69 to i64
  %71 = getelementptr inbounds [501 x i8], [501 x i8]* %6, i64 0, i64 0
  %72 = call i64 @strlen(i8* %71) #4
  %73 = icmp ult i64 %70, %72
  br i1 %73, label %74, label %120

74:                                               ; preds = %68
  %75 = load i32, i32* %2, align 4
  %76 = sext i32 %75 to i64
  %77 = getelementptr inbounds [501 x i8], [501 x i8]* %6, i64 0, i64 %76
  %78 = load i8, i8* %77, align 1
  %79 = sext i8 %78 to i32
  %80 = getelementptr inbounds [5 x i8], [5 x i8]* %8, i64 0, i64 0
  %81 = load i8, i8* %80, align 1
  %82 = sext i8 %81 to i32
  %83 = icmp ne i32 %79, %82
  br i1 %83, label %84, label %116

84:                                               ; preds = %74
  %85 = load i32, i32* %2, align 4
  %86 = sext i32 %85 to i64
  %87 = getelementptr inbounds [501 x i8], [501 x i8]* %6, i64 0, i64 %86
  %88 = load i8, i8* %87, align 1
  %89 = sext i8 %88 to i32
  %90 = getelementptr inbounds [5 x i8], [5 x i8]* %8, i64 0, i64 1
  %91 = load i8, i8* %90, align 1
  %92 = sext i8 %91 to i32
  %93 = icmp ne i32 %89, %92
  br i1 %93, label %94, label %116

94:                                               ; preds = %84
  %95 = load i32, i32* %2, align 4
  %96 = sext i32 %95 to i64
  %97 = getelementptr inbounds [501 x i8], [501 x i8]* %6, i64 0, i64 %96
  %98 = load i8, i8* %97, align 1
  %99 = sext i8 %98 to i32
  %100 = getelementptr inbounds [5 x i8], [5 x i8]* %8, i64 0, i64 2
  %101 = load i8, i8* %100, align 1
  %102 = sext i8 %101 to i32
  %103 = icmp ne i32 %99, %102
  br i1 %103, label %104, label %116

104:                                              ; preds = %94
  %105 = load i32, i32* %2, align 4
  %106 = sext i32 %105 to i64
  %107 = getelementptr inbounds [501 x i8], [501 x i8]* %6, i64 0, i64 %106
  %108 = load i8, i8* %107, align 1
  %109 = sext i8 %108 to i32
  %110 = getelementptr inbounds [5 x i8], [5 x i8]* %8, i64 0, i64 3
  %111 = load i8, i8* %110, align 1
  %112 = sext i8 %111 to i32
  %113 = icmp ne i32 %109, %112
  br i1 %113, label %114, label %116

114:                                              ; preds = %104
  %115 = call i32 (i8*, ...) @printf(i8* getelementptr inbounds ([6 x i8], [6 x i8]* @.str.2, i64 0, i64 0))
  store i32 0, i32* %1, align 4
  br label %177

116:                                              ; preds = %104, %94, %84, %74
  br label %117

117:                                              ; preds = %116
  %118 = load i32, i32* %2, align 4
  %119 = add nsw i32 %118, 1
  store i32 %119, i32* %2, align 4
  br label %68

120:                                              ; preds = %68
  %121 = getelementptr inbounds [501 x i8], [501 x i8]* %6, i64 0, i64 0
  %122 = call i64 @strlen(i8* %121) #4
  %123 = getelementptr inbounds [501 x i8], [501 x i8]* %7, i64 0, i64 0
  %124 = call i64 @strlen(i8* %123) #4
  %125 = icmp ne i64 %122, %124
  br i1 %125, label %126, label %128

126:                                              ; preds = %120
  %127 = call i32 (i8*, ...) @printf(i8* getelementptr inbounds ([6 x i8], [6 x i8]* @.str.2, i64 0, i64 0))
  store i32 0, i32* %1, align 4
  br label %177

128:                                              ; preds = %120
  store i32 0, i32* %2, align 4
  br label %129

129:                                              ; preds = %151, %128
  %130 = load i32, i32* %2, align 4
  %131 = sext i32 %130 to i64
  %132 = getelementptr inbounds [501 x i8], [501 x i8]* %6, i64 0, i64 0
  %133 = call i64 @strlen(i8* %132) #4
  %134 = icmp ult i64 %131, %133
  br i1 %134, label %135, label %154

135:                                              ; preds = %129
  %136 = load i32, i32* %2, align 4
  %137 = sext i32 %136 to i64
  %138 = getelementptr inbounds [501 x i8], [501 x i8]* %6, i64 0, i64 %137
  %139 = load i8, i8* %138, align 1
  %140 = sext i8 %139 to i32
  %141 = load i32, i32* %2, align 4
  %142 = sext i32 %141 to i64
  %143 = getelementptr inbounds [501 x i8], [501 x i8]* %7, i64 0, i64 %142
  %144 = load i8, i8* %143, align 1
  %145 = sext i8 %144 to i32
  %146 = icmp eq i32 %140, %145
  br i1 %146, label %147, label %150

147:                                              ; preds = %135
  %148 = load i32, i32* %4, align 4
  %149 = add nsw i32 %148, 1
  store i32 %149, i32* %4, align 4
  br label %150

150:                                              ; preds = %147, %135
  br label %151

151:                                              ; preds = %150
  %152 = load i32, i32* %2, align 4
  %153 = add nsw i32 %152, 1
  store i32 %153, i32* %2, align 4
  br label %129

154:                                              ; preds = %129
  %155 = load double, double* %5, align 8
  %156 = load i32, i32* %4, align 4
  %157 = sitofp i32 %156 to double
  %158 = getelementptr inbounds [501 x i8], [501 x i8]* %6, i64 0, i64 0
  %159 = call i64 @strlen(i8* %158) #4
  %160 = uitofp i64 %159 to double
  %161 = fdiv double %157, %160
  %162 = fcmp olt double %155, %161
  br i1 %162, label %172, label %163

163:                                              ; preds = %154
  %164 = load double, double* %5, align 8
  %165 = load i32, i32* %4, align 4
  %166 = sitofp i32 %165 to double
  %167 = getelementptr inbounds [501 x i8], [501 x i8]* %6, i64 0, i64 0
  %168 = call i64 @strlen(i8* %167) #4
  %169 = uitofp i64 %168 to double
  %170 = fdiv double %166, %169
  %171 = fcmp oeq double %164, %170
  br i1 %171, label %172, label %174

172:                                              ; preds = %163, %154
  %173 = call i32 (i8*, ...) @printf(i8* getelementptr inbounds ([4 x i8], [4 x i8]* @.str.3, i64 0, i64 0))
  br label %176

174:                                              ; preds = %163
  %175 = call i32 (i8*, ...) @printf(i8* getelementptr inbounds ([3 x i8], [3 x i8]* @.str.4, i64 0, i64 0))
  br label %176

176:                                              ; preds = %174, %172
  store i32 0, i32* %1, align 4
  br label %177

177:                                              ; preds = %176, %126, %114, %61
  %178 = load i32, i32* %1, align 4
  ret i32 %178
}

; Function Attrs: argmemonly nounwind willreturn
declare void @llvm.memcpy.p0i8.p0i8.i64(i8* noalias nocapture writeonly, i8* noalias nocapture readonly, i64, i1 immarg) #1

declare dso_local i32 @__isoc99_scanf(i8*, ...) #2

; Function Attrs: nounwind readonly
declare dso_local i64 @strlen(i8*) #3

declare dso_local i32 @printf(i8*, ...) #2


!llvm.module.flags = !{!0}
!llvm.ident = !{!1}

!0 = !{i32 1, !"wchar_size", i32 4}
!1 = !{!"clang version 10.0.0-4ubuntu1 "}
